; ModuleID = '42/603.c'
source_filename = "42/603.c"
target datalayout = "e-m:e-p270:32:32-p271:32:32-p272:64:64-i64:64-f80:128-n8:16:32:64-S128"
target triple = "x86_64-pc-linux-gnu"

@.str = private unnamed_addr constant [3 x i8] c"%d\00", align 1
@.str.1 = private unnamed_addr constant [4 x i8] c"%d \00", align 1

; Function Attrs: noinline nounwind uwtable
define dso_local i32 @main() #0 {
  %1 = alloca i32, align 4
  %2 = alloca [100000 x i32], align 16
  %3 = alloca i32*, align 8
  %4 = alloca i32, align 4
  %5 = alloca i32, align 4
  %6 = alloca i32, align 4
  %7 = alloca i32, align 4
  %8 = alloca i32, align 4
  store i32 0, i32* %1, align 4
  %9 = getelementptr inbounds [100000 x i32], [100000 x i32]* %2, i64 0, i64 0
  store i32* %9, i32** %3, align 8
  store i32 0, i32* %8, align 4
  %10 = call i32 (i8*, ...) @__isoc99_scanf(i8* getelementptr inbounds ([3 x i8], [3 x i8]* @.str, i64 0, i64 0), i32* %7)
  store i32 0, i32* %4, align 4
  br label %11

11:                                               ; preds = %20, %0
  %12 = load i32, i32* %4, align 4
  %13 = load i32, i32* %7, align 4
  %14 = icmp slt i32 %12, %13
  br i1 %14, label %15, label %23

15:                                               ; preds = %11
  %16 = load i32, i32* %4, align 4
  %17 = sext i32 %16 to i64
  %18 = getelementptr inbounds [100000 x i32], [100000 x i32]* %2, i64 0, i64 %17
  %19 = call i32 (i8*, ...) @__isoc99_scanf(i8* getelementptr inbounds ([3 x i8], [3 x i8]* @.str, i64 0, i64 0), i32* %18)
  br label %20

20:                                               ; preds = %15
  %21 = load i32, i32* %4, align 4
  %22 = add nsw i32 %21, 1
  store i32 %22, i32* %4, align 4
  br label %11

23:                                               ; preds = %11
  %24 = call i32 (i8*, ...) @__isoc99_scanf(i8* getelementptr inbounds ([3 x i8], [3 x i8]* @.str, i64 0, i64 0), i32* %6)
  store i32 0, i32* %4, align 4
  br label %25

25:                                               ; preds = %62, %23
  %26 = load i32, i32* %4, align 4
  %27 = load i32, i32* %7, align 4
  %28 = icmp slt i32 %26, %27
  br i1 %28, label %29, label %65

29:                                               ; preds = %25
  %30 = load i32, i32* %4, align 4
  %31 = sext i32 %30 to i64
  %32 = getelementptr inbounds [100000 x i32], [100000 x i32]* %2, i64 0, i64 %31
  %33 = load i32, i32* %32, align 4
  %34 = load i32, i32* %6, align 4
  %35 = icmp eq i32 %33, %34
  br i1 %35, label %36, label %61

36:                                               ; preds = %29
  %37 = load i32, i32* %4, align 4
  store i32 %37, i32* %5, align 4
  br label %38

38:                                               ; preds = %53, %36
  %39 = load i32, i32* %5, align 4
  %40 = load i32, i32* %7, align 4
  %41 = icmp slt i32 %39, %40
  br i1 %41, label %42, label %56

42:                                               ; preds = %38
  %43 = load i32*, i32** %3, align 8
  %44 = load i32, i32* %5, align 4
  %45 = sext i32 %44 to i64
  %46 = getelementptr inbounds i32, i32* %43, i64 %45
  %47 = getelementptr inbounds i32, i32* %46, i64 1
  %48 = load i32, i32* %47, align 4
  %49 = load i32*, i32** %3, align 8
  %50 = load i32, i32* %5, align 4
  %51 = sext i32 %50 to i64
  %52 = getelementptr inbounds i32, i32* %49, i64 %51
  store i32 %48, i32* %52, align 4
  br label %53

53:                                               ; preds = %42
  %54 = load i32, i32* %5, align 4
  %55 = add nsw i32 %54, 1
  store i32 %55, i32* %5, align 4
  br label %38

56:                                               ; preds = %38
  %57 = load i32, i32* %8, align 4
  %58 = add nsw i32 %57, 1
  store i32 %58, i32* %8, align 4
  %59 = load i32, i32* %4, align 4
  %60 = sub nsw i32 %59, 1
  store i32 %60, i32* %4, align 4
  br label %61

61:                                               ; preds = %56, %29
  br label %62

62:                                               ; preds = %61
  %63 = load i32, i32* %4, align 4
  %64 = add nsw i32 %63, 1
  store i32 %64, i32* %4, align 4
  br label %25

65:                                               ; preds = %25
  store i32 0, i32* %4, align 4
  br label %66

66:                                               ; preds = %92, %65
  %67 = load i32, i32* %4, align 4
  %68 = load i32, i32* %7, align 4
  %69 = load i32, i32* %8, align 4
  %70 = sub nsw i32 %68, %69
  %71 = icmp slt i32 %67, %70
  br i1 %71, label %72, label %95

72:                                               ; preds = %66
  %73 = load i32, i32* %4, align 4
  %74 = load i32, i32* %7, align 4
  %75 = load i32, i32* %8, align 4
  %76 = add nsw i32 %75, 1
  %77 = sub nsw i32 %74, %76
  %78 = icmp slt i32 %73, %77
  br i1 %78, label %79, label %85

79:                                               ; preds = %72
  %80 = load i32, i32* %4, align 4
  %81 = sext i32 %80 to i64
  %82 = getelementptr inbounds [100000 x i32], [100000 x i32]* %2, i64 0, i64 %81
  %83 = load i32, i32* %82, align 4
  %84 = call i32 (i8*, ...) @printf(i8* getelementptr inbounds ([4 x i8], [4 x i8]* @.str.1, i64 0, i64 0), i32 %83)
  br label %91

85:                                               ; preds = %72
  %86 = load i32, i32* %4, align 4
  %87 = sext i32 %86 to i64
  %88 = getelementptr inbounds [100000 x i32], [100000 x i32]* %2, i64 0, i64 %87
  %89 = load i32, i32* %88, align 4
  %90 = call i32 (i8*, ...) @printf(i8* getelementptr inbounds ([3 x i8], [3 x i8]* @.str, i64 0, i64 0), i32 %89)
  br label %91

91:                                               ; preds = %85, %79
  br label %92

92:                                               ; preds = %91
  %93 = load i32, i32* %4, align 4
  %94 = add nsw i32 %93, 1
  store i32 %94, i32* %4, align 4
  br label %66

95:                                               ; preds = %66
  ret i32 0
}

declare dso_local i32 @__isoc99_scanf(i8*, ...) #1

declare dso_local i32 @printf(i8*, ...) #1


!llvm.module.flags = !{!0}
!llvm.ident = !{!1}

!0 = !{i32 1, !"wchar_size", i32 4}
!1 = !{!"clang version 10.0.0-4ubuntu1 "}
